; Function Attrs: nofree nounwind memory(readwrite, inaccessiblemem: none) uwtable
define hidden void @collapse(ptr noundef %0) local_unnamed_addr #0 {
  %2 = load i8, ptr %0, align 1
  %3 = icmp eq i8 %2, 47
  %.idx = zext i1 %3 to i64
  %4 = getelementptr inbounds i8, ptr %0, i64 %.idx
  br label %.loopexit.i

.loopexit.i:                                      ; preds = %.loopexit.i.backedge, %1
  %.015.i = phi ptr [ %4, %1 ], [ %.015.i.be, %.loopexit.i.backedge ]
  %.014.i = phi i32 [ 0, %1 ], [ %.1.i, %.loopexit.i.backedge ]
  %.0.i = phi i32 [ 0, %1 ], [ %14, %.loopexit.i.backedge ]
  %5 = load i8, ptr %.015.i, align 1
  switch i8 %5, label %13 [
    i8 0, label %collapsible.exit
    i8 46, label %6
  ]

6:                                                ; preds = %.loopexit.i
  %7 = getelementptr inbounds i8, ptr %.015.i, i64 1
  %8 = load i8, ptr %7, align 1
  switch i8 %8, label %13 [
    i8 0, label %12
    i8 47, label %12
    i8 46, label %9
  ]

9:                                                ; preds = %6
  %10 = getelementptr inbounds i8, ptr %.015.i, i64 2
  %11 = load i8, ptr %10, align 1
  switch i8 %11, label %13 [
    i8 0, label %12
    i8 47, label %12
  ]

12:                                               ; preds = %9, %9, %6, %6
  br label %13

13:                                               ; preds = %12, %9, %6, %.loopexit.i
  %.1.i = phi i32 [ 1, %12 ], [ %.014.i, %.loopexit.i ], [ %.014.i, %6 ], [ %.014.i, %9 ]
  %14 = add nuw nsw i32 %.0.i, 1
  br label %15

15:                                               ; preds = %19, %13
  %16 = phi i8 [ %5, %13 ], [ %.pre.i, %19 ]
  %.116.i = phi ptr [ %.015.i, %13 ], [ %20, %19 ]
  switch i8 %16, label %19 [
    i8 0, label %.loopexit.i.backedge
    i8 47, label %17
  ], !llvm.loop !6

17:                                               ; preds = %15
  %18 = getelementptr inbounds i8, ptr %.116.i, i64 1
  br label %.loopexit.i.backedge

.loopexit.i.backedge:                             ; preds = %15, %17
  %.015.i.be = phi ptr [ %18, %17 ], [ %.116.i, %15 ]
  br label %.loopexit.i, !llvm.loop !6

19:                                               ; preds = %15
  %20 = getelementptr inbounds i8, ptr %.116.i, i64 1
  %.pre.i = load i8, ptr %20, align 1
  br label %15, !llvm.loop !8

collapsible.exit:                                 ; preds = %.loopexit.i
  %.not21.i = icmp eq i32 %.014.i, 0
  %21 = select i1 %.not21.i, i32 0, i32 %.0.i
  %22 = icmp ult i32 %21, 2
  br i1 %22, label %84, label %23

23:                                               ; preds = %collapsible.exit
  %24 = zext nneg i32 %21 to i64
  %25 = shl nuw nsw i64 %24, 3
  %26 = alloca i8, i64 %25, align 16
  %27 = load i8, ptr %4, align 1
  %.not13.i = icmp eq i8 %27, 0
  br i1 %.not13.i, label %splitNames.exit, label %.lr.ph.i

.lr.ph.i:                                         ; preds = %23, %.loopexit.i48
  %indvars.iv.i = phi i64 [ %indvars.iv.next.i, %.loopexit.i48 ], [ 0, %23 ]
  %.0814.i = phi ptr [ %31, %.loopexit.i48 ], [ %4, %23 ]
  %indvars.iv.next.i = add nuw nsw i64 %indvars.iv.i, 1
  %28 = getelementptr inbounds ptr, ptr %26, i64 %indvars.iv.i
  store ptr %.0814.i, ptr %28, align 8
  br label %29

29:                                               ; preds = %29, %.lr.ph.i
  %.08.pn.i = phi ptr [ %.0814.i, %.lr.ph.i ], [ %.1.i47, %29 ]
  %.1.i47 = getelementptr inbounds i8, ptr %.08.pn.i, i64 1
  %30 = load i8, ptr %.1.i47, align 1
  switch i8 %30, label %29 [
    i8 0, label %splitNames.exit
    i8 47, label %.loopexit.i48
  ], !llvm.loop !9

.loopexit.i48:                                    ; preds = %29
  %31 = getelementptr inbounds i8, ptr %.08.pn.i, i64 2
  store i8 0, ptr %.1.i47, align 1
  %.pre.i49 = load i8, ptr %31, align 1
  %.not.i = icmp eq i8 %.pre.i49, 0
  br i1 %.not.i, label %splitNames.exit, label %.lr.ph.i, !llvm.loop !10

splitNames.exit:                                  ; preds = %.loopexit.i48, %29, %23
  %32 = zext nneg i32 %21 to i64
  br label %.preheader68

.preheader68:                                     ; preds = %splitNames.exit, %66
  %.075 = phi i32 [ 0, %splitNames.exit ], [ %67, %66 ]
  %33 = sext i32 %.075 to i64
  br label %34

34:                                               ; preds = %.preheader68, %46
  %indvars.iv = phi i64 [ %33, %.preheader68 ], [ %indvars.iv.next, %46 ]
  %35 = getelementptr inbounds ptr, ptr %26, i64 %indvars.iv
  %36 = load ptr, ptr %35, align 8
  %37 = load i8, ptr %36, align 1
  %38 = icmp eq i8 %37, 46
  br i1 %38, label %39, label %46

39:                                               ; preds = %34
  %40 = getelementptr inbounds i8, ptr %36, i64 1
  %41 = load i8, ptr %40, align 1
  switch i8 %41, label %46 [
    i8 0, label %.thread
    i8 46, label %42
  ]

42:                                               ; preds = %39
  %43 = getelementptr inbounds i8, ptr %36, i64 2
  %44 = load i8, ptr %43, align 1
  %45 = icmp eq i8 %44, 0
  br i1 %45, label %48, label %46

46:                                               ; preds = %39, %42, %34
  %indvars.iv.next = add nsw i64 %indvars.iv, 1
  %47 = icmp slt i64 %indvars.iv.next, %32
  br i1 %47, label %34, label %.lr.ph.i50.preheader, !llvm.loop !11

48:                                               ; preds = %42
  %49 = trunc nsw i64 %indvars.iv to i32
  %.not = icmp sgt i32 %21, %49
  br i1 %.not, label %.preheader.preheader, label %.lr.ph.i50.preheader

.preheader.preheader:                             ; preds = %48
  %50 = and i64 %indvars.iv, 4294967295
  br label %.preheader

.thread:                                          ; preds = %39
  %51 = trunc nsw i64 %indvars.iv to i32
  %.not61 = icmp sgt i32 %21, %51
  br i1 %.not61, label %.sink.split, label %.lr.ph.i50.preheader

.preheader:                                       ; preds = %.preheader.preheader, %54
  %indvars.iv82 = phi i64 [ %50, %.preheader.preheader ], [ %55, %54 ]
  %52 = trunc nuw i64 %indvars.iv82 to i32
  %53 = icmp sgt i32 %52, 0
  br i1 %53, label %54, label %58

54:                                               ; preds = %.preheader
  %55 = add nsw i64 %indvars.iv82, -1
  %56 = getelementptr inbounds ptr, ptr %26, i64 %55
  %57 = load ptr, ptr %56, align 8
  %.not46 = icmp eq ptr %57, null
  br i1 %.not46, label %.preheader, label %61, !llvm.loop !12

58:                                               ; preds = %.preheader
  %59 = load i8, ptr %0, align 1
  %60 = icmp eq i8 %59, 47
  br i1 %60, label %.sink.split, label %66

61:                                               ; preds = %54
  %62 = and i64 %55, 4294967295
  %63 = getelementptr inbounds ptr, ptr %26, i64 %62
  store ptr null, ptr %63, align 8
  br label %.sink.split

.sink.split:                                      ; preds = %58, %.thread, %61
  %.26265.ph = phi i32 [ %49, %61 ], [ %51, %.thread ], [ %49, %58 ]
  %sext99 = shl i64 %indvars.iv, 32
  %64 = ashr exact i64 %sext99, 29
  %65 = getelementptr inbounds i8, ptr %26, i64 %64
  store ptr null, ptr %65, align 8
  br label %66

66:                                               ; preds = %.sink.split, %58
  %.26265 = phi i32 [ %49, %58 ], [ %.26265.ph, %.sink.split ]
  %67 = add nsw i32 %.26265, 1
  %68 = icmp slt i32 %67, %21
  br i1 %68, label %.preheader68, label %.lr.ph.i50.preheader, !llvm.loop !13

.lr.ph.i50.preheader:                             ; preds = %66, %48, %.thread, %46
  br label %.lr.ph.i50

.lr.ph.i50:                                       ; preds = %.lr.ph.i50.preheader, %.loopexit.i57
  %indvars.iv.i51 = phi i64 [ %indvars.iv.next.i59, %.loopexit.i57 ], [ 0, %.lr.ph.i50.preheader ]
  %.01723.i = phi ptr [ %.2.i58, %.loopexit.i57 ], [ %4, %.lr.ph.i50.preheader ]
  %69 = getelementptr inbounds ptr, ptr %26, i64 %indvars.iv.i51
  %70 = load ptr, ptr %69, align 8
  %.not.i52 = icmp eq ptr %70, null
  br i1 %.not.i52, label %.loopexit.i57, label %71

71:                                               ; preds = %.lr.ph.i50
  %.not20.i = icmp eq i64 %indvars.iv.i51, 0
  br i1 %.not20.i, label %74, label %72

72:                                               ; preds = %71
  %73 = getelementptr inbounds i8, ptr %.01723.i, i64 -1
  store i8 47, ptr %73, align 1
  %.pre.i53 = load ptr, ptr %69, align 8
  br label %74

74:                                               ; preds = %72, %71
  %75 = phi ptr [ %.pre.i53, %72 ], [ %70, %71 ]
  %76 = icmp eq ptr %.01723.i, %75
  br i1 %76, label %77, label %.preheader.i

77:                                               ; preds = %74
  %78 = tail call i64 @strlen(ptr noundef nonnull dereferenceable(1) %.01723.i) #2
  %79 = add i64 %78, 1
  %80 = getelementptr inbounds i8, ptr %.01723.i, i64 %79
  br label %.loopexit.i57

.preheader.i:                                     ; preds = %74, %.preheader.i
  %.1.i54 = phi ptr [ %83, %.preheader.i ], [ %.01723.i, %74 ]
  %.0.i55 = phi ptr [ %81, %.preheader.i ], [ %75, %74 ]
  %81 = getelementptr inbounds i8, ptr %.0.i55, i64 1
  %82 = load i8, ptr %.0.i55, align 1
  %83 = getelementptr inbounds i8, ptr %.1.i54, i64 1
  store i8 %82, ptr %.1.i54, align 1
  %.not21.i56 = icmp eq i8 %82, 0
  br i1 %.not21.i56, label %.loopexit.i57, label %.preheader.i, !llvm.loop !14

.loopexit.i57:                                    ; preds = %.preheader.i, %77, %.lr.ph.i50
  %.2.i58 = phi ptr [ %80, %77 ], [ %.01723.i, %.lr.ph.i50 ], [ %83, %.preheader.i ]
  %indvars.iv.next.i59 = add nuw nsw i64 %indvars.iv.i51, 1
  %exitcond.not.i = icmp eq i64 %indvars.iv.next.i59, %24
  br i1 %exitcond.not.i, label %joinNames.exit, label %.lr.ph.i50, !llvm.loop !15

joinNames.exit:                                   ; preds = %.loopexit.i57
  store i8 0, ptr %.2.i58, align 1
  br label %84

84:                                               ; preds = %collapsible.exit, %joinNames.exit
  ret void
}